target datalayout = "e-m:e-p270:32:32-p271:32:32-p272:64:64-i64:64-i128:128-f80:128-n8:16:32:64-S128"
target triple = "x86_64-pc-linux-gnu"

; Function Attrs: null_pointer_is_valid sspstrong uwtable
define internal void @get_len_8bit_ascii(ptr noundef %0, ptr noundef %1, ptr noundef %2, i32 noundef %3, i32 noundef %4, i1 noundef zeroext %5) #0 {
  %7 = alloca ptr, align 8
  %8 = alloca ptr, align 8
  %9 = alloca ptr, align 8
  %10 = alloca i32, align 4
  %11 = alloca i32, align 4
  %12 = alloca i8, align 1
  %13 = alloca i32, align 4
  %14 = alloca i8, align 1
  store ptr %0, ptr %7, align 8
  store ptr %1, ptr %8, align 8
  store ptr %2, ptr %9, align 8
  store i32 %3, ptr %10, align 4
  store i32 %4, ptr %11, align 4
  %15 = zext i1 %5 to i8
  store i8 %15, ptr %12, align 1
  call void @llvm.lifetime.start.p0(i64 4, ptr %13) #10
  call void @llvm.lifetime.start.p0(i64 1, ptr %14) #10
  %16 = load i32, ptr %11, align 4
  %17 = load ptr, ptr %8, align 8
  store i32 %16, ptr %17, align 4
  %18 = load ptr, ptr %7, align 8
  store i32 0, ptr %18, align 4
  store i32 0, ptr %13, align 4
  br label %19

19:                                               ; preds = %42, %6
  %20 = load i32, ptr %13, align 4
  %21 = load i32, ptr %11, align 4
  %22 = icmp ult i32 %20, %21
  br i1 %22, label %23, label %45

23:                                               ; preds = %19
  %24 = load ptr, ptr %9, align 8
  %25 = load i32, ptr %10, align 4
  %26 = load i32, ptr %13, align 4
  %27 = add i32 %25, %26
  %28 = call zeroext i8 @tvb_get_uint8(ptr noundef %24, i32 noundef %27)
  store i8 %28, ptr %14, align 1
  %29 = load i8, ptr %14, align 1
  %30 = zext i8 %29 to i32
  %31 = icmp sge i32 %30, 32
  br i1 %31, label %32, label %36

32:                                               ; preds = %23
  %33 = load i8, ptr %14, align 1
  %34 = zext i8 %33 to i32
  %35 = icmp sle i32 %34, 127
  br label %36

36:                                               ; preds = %32, %23
  %37 = phi i1 [ false, %23 ], [ %35, %32 ]
  %38 = select i1 %37, i32 1, i32 4
  %39 = load ptr, ptr %7, align 8
  %40 = load i32, ptr %39, align 4
  %41 = add i32 %40, %38
  store i32 %41, ptr %39, align 4
  br label %42

42:                                               ; preds = %36
  %43 = load i32, ptr %13, align 4
  %44 = add i32 %43, 1
  store i32 %44, ptr %13, align 4
  br label %19, !llvm.loop !16

45:                                               ; preds = %19
  call void @llvm.lifetime.end.p0(i64 1, ptr %14) #10
  call void @llvm.lifetime.end.p0(i64 4, ptr %13) #10
  ret void
}