; Function Attrs: null_pointer_is_valid sspstrong uwtable
define internal void @get_len_8bit_ascii(ptr noundef captures(none) initializes((0, 4)) %0, ptr noundef writeonly captures(none) initializes((0, 4)) %1, ptr noundef %2, i32 noundef %3, i32 noundef %4, i1 zeroext %5) #0 {
  store i32 %4, ptr %1, align 4
  store i32 0, ptr %0, align 4
  %.not = icmp eq i32 %4, 0
  br i1 %.not, label %._crit_edge, label %.lr.ph

.lr.ph:                                           ; preds = %6, %.lr.ph
  %.011 = phi i32 [ %13, %.lr.ph ], [ 0, %6 ]
  %7 = add i32 %.011, %3
  %8 = tail call zeroext i8 @tvb_get_uint8(ptr noundef %2, i32 noundef %7)
  %9 = icmp sgt i8 %8, 31
  %10 = select i1 %9, i32 1, i32 4
  %11 = load i32, ptr %0, align 4
  %12 = add i32 %10, %11
  store i32 %12, ptr %0, align 4
  %13 = add nuw i32 %.011, 1
  %exitcond.not = icmp eq i32 %13, %4
  br i1 %exitcond.not, label %._crit_edge, label %.lr.ph, !llvm.loop !18

._crit_edge:                                      ; preds = %.lr.ph, %6
  ret void
}